; Function Attrs: mustprogress uwtable
define void @_ZN5Ipopt16FilterLSAcceptor13AugmentFilterEv(ptr noundef nonnull align 8 dereferenceable(304) %0) local_unnamed_addr #3 align 2 {
  %2 = getelementptr inbounds i8, ptr %0, i64 208
  %3 = load double, ptr %2, align 8
  %4 = getelementptr inbounds i8, ptr %0, i64 120
  %5 = load double, ptr %4, align 8
  %6 = getelementptr inbounds i8, ptr %0, i64 200
  %7 = load double, ptr %6, align 8
  %8 = fneg double %5
  %9 = tail call double @llvm.fmuladd.f64(double %8, double %7, double %3)
  %10 = getelementptr inbounds i8, ptr %0, i64 128
  %11 = load double, ptr %10, align 8
  %12 = fsub double 1.000000e+00, %11
  %13 = fmul double %7, %12
  %14 = getelementptr inbounds i8, ptr %0, i64 248
  %15 = getelementptr inbounds i8, ptr %0, i64 32
  %16 = load ptr, ptr %15, align 8
  %17 = getelementptr inbounds i8, ptr %16, i64 68
  %18 = load i32, ptr %17, align 4
  tail call void @_ZN5Ipopt6Filter8AddEntryEddi(ptr noundef nonnull align 8 dereferenceable(32) %14, double noundef %9, double noundef %13, i32 noundef %18)
  ret void
}